; ModuleID = 'bench/abc/original/gmock_main.ll'
source_filename = "bench/abc/original/gmock_main.ll"
target datalayout = "e-m:e-p270:32:32-p271:32:32-p272:64:64-i64:64-i128:128-f80:128-n8:16:32:64-S128"
target triple = "x86_64-pc-linux-gnu"

%"class.std::ios_base::Init" = type { i8 }
%"class.std::basic_ostream" = type { ptr, %"class.std::basic_ios" }
%"class.std::basic_ios" = type { %"class.std::ios_base", ptr, i8, i8, ptr, ptr, ptr, ptr }
%"class.std::ios_base" = type { ptr, i64, i64, i32, i32, i32, ptr, %"struct.std::ios_base::_Words", [8 x %"struct.std::ios_base::_Words"], i32, ptr, %"class.std::locale" }
%"struct.std::ios_base::_Words" = type { ptr, i64 }
%"class.std::locale" = type { ptr }

@_ZStL8__ioinit = internal global %"class.std::ios_base::Init" zeroinitializer, align 1
@__dso_handle = external hidden global i8
@_ZSt4cout = external global %"class.std::basic_ostream", align 8
@.str = private unnamed_addr constant [35 x i8] c"Running main() from gmock_main.cc\0A\00", align 1
@llvm.global_ctors = appending global [1 x { i32, ptr, ptr }] [{ i32, ptr, ptr } { i32 65535, ptr @_GLOBAL__sub_I_gmock_main.cc, ptr null }]

declare void @_ZNSt8ios_base4InitC1Ev(ptr noundef nonnull align 1 dereferenceable(1)) unnamed_addr #0

; Function Attrs: nounwind
declare void @_ZNSt8ios_base4InitD1Ev(ptr noundef nonnull align 1 dereferenceable(1)) unnamed_addr #1

; Function Attrs: nofree nounwind
declare i32 @__cxa_atexit(ptr, ptr, ptr) local_unnamed_addr #2

; Function Attrs: mustprogress norecurse uwtable
define noundef i32 @main(i32 noundef %0, ptr noundef %1) local_unnamed_addr #3 {
  %3 = alloca i32, align 4
  store i32 %0, ptr %3, align 4, !tbaa !3
  %4 = tail call noundef nonnull align 8 dereferenceable(8) ptr @_ZSt16__ostream_insertIcSt11char_traitsIcEERSt13basic_ostreamIT_T0_ES6_PKS3_l(ptr noundef nonnull align 8 dereferenceable(8) @_ZSt4cout, ptr noundef nonnull @.str, i64 noundef 34)
  call void @_ZN7testing14InitGoogleMockEPiPPc(ptr noundef nonnull %3, ptr noundef %1)
  %5 = call noundef ptr @_ZN7testing8UnitTest11GetInstanceEv()
  %6 = call noundef i32 @_ZN7testing8UnitTest3RunEv(ptr noundef nonnull align 8 dereferenceable(72) %5)
  ret i32 %6
}

declare void @_ZN7testing14InitGoogleMockEPiPPc(ptr noundef, ptr noundef) local_unnamed_addr #0

declare noundef ptr @_ZN7testing8UnitTest11GetInstanceEv() local_unnamed_addr #0

declare noundef i32 @_ZN7testing8UnitTest3RunEv(ptr noundef nonnull align 8 dereferenceable(72)) local_unnamed_addr #0

declare noundef nonnull align 8 dereferenceable(8) ptr @_ZSt16__ostream_insertIcSt11char_traitsIcEERSt13basic_ostreamIT_T0_ES6_PKS3_l(ptr noundef nonnull align 8 dereferenceable(8), ptr noundef, i64 noundef) local_unnamed_addr #0

; Function Attrs: uwtable
define internal void @_GLOBAL__sub_I_gmock_main.cc() #4 section ".text.startup" {
  tail call void @_ZNSt8ios_base4InitC1Ev(ptr noundef nonnull align 1 dereferenceable(1) @_ZStL8__ioinit)
  %1 = tail call i32 @__cxa_atexit(ptr nonnull @_ZNSt8ios_base4InitD1Ev, ptr nonnull @_ZStL8__ioinit, ptr nonnull @__dso_handle) #5
  ret void
}


!llvm.module.flags = !{!0, !1, !2}

!0 = !{i32 1, !"wchar_size", i32 4}
!1 = !{i32 8, !"PIC Level", i32 2}
!2 = !{i32 7, !"uwtable", i32 2}
!3 = !{!4, !4, i64 0}
!4 = !{!"int", !5, i64 0}
!5 = !{!"omnipotent char", !6, i64 0}
!6 = !{!"Simple C++ TBAA"}
